target datalayout = "e-m:e-p270:32:32-p271:32:32-p272:64:64-i64:64-i128:128-f80:128-n8:16:32:64-S128"
target triple = "x86_64-pc-linux-gnu"

%struct.png_XYZ = type { i32, i32, i32, i32, i32, i32, i32, i32, i32 }
%struct.png_xy = type { i32, i32, i32, i32, i32, i32, i32, i32 }
%struct.png_colorspace = type { i32, %struct.png_xy, %struct.png_XYZ, i16, i16 }

@png_colorspace_set_sRGB.sRGB_XYZ = internal constant %struct.png_XYZ { i32 41239, i32 21264, i32 1933, i32 35758, i32 71517, i32 11919, i32 18048, i32 7219, i32 95053 }, align 4
@.str.25 = private unnamed_addr constant [5 x i8] c"sRGB\00", align 1
@.str.26 = private unnamed_addr constant [30 x i8] c"invalid sRGB rendering intent\00", align 1
@.str.27 = private unnamed_addr constant [31 x i8] c"inconsistent rendering intents\00", align 1
@.str.28 = private unnamed_addr constant [35 x i8] c"duplicate sRGB information ignored\00", align 1
@sRGB_xy = internal constant %struct.png_xy { i32 64000, i32 33000, i32 30000, i32 60000, i32 15000, i32 6000, i32 31270, i32 32900 }, align 4
@.str.29 = private unnamed_addr constant [31 x i8] c"cHRM chunk does not match sRGB\00", align 1
@.str.68 = private unnamed_addr constant [32 x i8] c"gamma value does not match sRGB\00", align 1
@.str.69 = private unnamed_addr constant [43 x i8] c"gamma value does not match libpng estimate\00", align 1

; Function Attrs: nounwind uwtable
define hidden i32 @png_gamma_significant(i32 noundef %0) #0 {
  %2 = alloca i32, align 4
  store i32 %0, ptr %2, align 4
  %3 = load i32, ptr %2, align 4
  %4 = icmp slt i32 %3, 95000
  br i1 %4, label %8, label %5

5:                                                ; preds = %1
  %6 = load i32, ptr %2, align 4
  %7 = icmp sgt i32 %6, 105000
  br label %8

8:                                                ; preds = %5, %1
  %9 = phi i1 [ true, %1 ], [ %7, %5 ]
  %10 = zext i1 %9 to i32
  ret i32 %10
}

; Function Attrs: nounwind uwtable
define hidden i32 @png_muldiv(ptr noundef %0, i32 noundef %1, i32 noundef %2, i32 noundef %3) #0 {
  %5 = alloca i32, align 4
  %6 = alloca ptr, align 8
  %7 = alloca i32, align 4
  %8 = alloca i32, align 4
  %9 = alloca i32, align 4
  %10 = alloca double, align 8
  store ptr %0, ptr %6, align 8
  store i32 %1, ptr %7, align 4
  store i32 %2, ptr %8, align 4
  store i32 %3, ptr %9, align 4
  %11 = load i32, ptr %9, align 4
  %12 = icmp ne i32 %11, 0
  br i1 %12, label %13, label %46

13:                                               ; preds = %4
  %14 = load i32, ptr %7, align 4
  %15 = icmp eq i32 %14, 0
  br i1 %15, label %19, label %16

16:                                               ; preds = %13
  %17 = load i32, ptr %8, align 4
  %18 = icmp eq i32 %17, 0
  br i1 %18, label %19, label %21

19:                                               ; preds = %16, %13
  %20 = load ptr, ptr %6, align 8
  store i32 0, ptr %20, align 4
  store i32 1, ptr %5, align 4
  br label %47

21:                                               ; preds = %16
  %22 = load i32, ptr %7, align 4
  %23 = sitofp i32 %22 to double
  store double %23, ptr %10, align 8
  %24 = load i32, ptr %8, align 4
  %25 = sitofp i32 %24 to double
  %26 = load double, ptr %10, align 8
  %27 = fmul double %26, %25
  store double %27, ptr %10, align 8
  %28 = load i32, ptr %9, align 4
  %29 = sitofp i32 %28 to double
  %30 = load double, ptr %10, align 8
  %31 = fdiv double %30, %29
  store double %31, ptr %10, align 8
  %32 = load double, ptr %10, align 8
  %33 = fadd double %32, 5.000000e-01
  %34 = call double @llvm.floor.f64(double %33)
  store double %34, ptr %10, align 8
  %35 = load double, ptr %10, align 8
  %36 = fcmp ole double %35, 0x41DFFFFFFFC00000
  br i1 %36, label %37, label %44

37:                                               ; preds = %21
  %38 = load double, ptr %10, align 8
  %39 = fcmp oge double %38, 0xC1E0000000000000
  br i1 %39, label %40, label %44

40:                                               ; preds = %37
  %41 = load double, ptr %10, align 8
  %42 = fptosi double %41 to i32
  %43 = load ptr, ptr %6, align 8
  store i32 %42, ptr %43, align 4
  store i32 1, ptr %5, align 4
  br label %47

44:                                               ; preds = %37, %21
  br label %45

45:                                               ; preds = %44
  br label %46

46:                                               ; preds = %45, %4
  store i32 0, ptr %5, align 4
  br label %47

47:                                               ; preds = %46, %40, %19
  %48 = load i32, ptr %5, align 4
  ret i32 %48
}

; Function Attrs: nounwind uwtable
define internal i32 @png_colorspace_check_gamma(ptr noalias noundef %0, ptr noalias noundef %1, i32 noundef %2, i32 noundef %3) #0 {
  %5 = alloca i32, align 4
  %6 = alloca ptr, align 8
  %7 = alloca ptr, align 8
  %8 = alloca i32, align 4
  %9 = alloca i32, align 4
  %10 = alloca i32, align 4
  store ptr %0, ptr %6, align 8
  store ptr %1, ptr %7, align 8
  store i32 %2, ptr %8, align 4
  store i32 %3, ptr %9, align 4
  %11 = load ptr, ptr %7, align 8
  %12 = getelementptr inbounds %struct.png_colorspace, ptr %11, i32 0, i32 4
  %13 = load i16, ptr %12, align 2
  %14 = zext i16 %13 to i32
  %15 = and i32 %14, 1
  %16 = icmp ne i32 %15, 0
  br i1 %16, label %17, label %48

17:                                               ; preds = %4
  %18 = load ptr, ptr %7, align 8
  %19 = getelementptr inbounds %struct.png_colorspace, ptr %18, i32 0, i32 0
  %20 = load i32, ptr %19, align 4
  %21 = load i32, ptr %8, align 4
  %22 = call i32 @png_muldiv(ptr noundef %10, i32 noundef %20, i32 noundef 100000, i32 noundef %21)
  %23 = icmp eq i32 %22, 0
  br i1 %23, label %28, label %24

24:                                               ; preds = %17
  %25 = load i32, ptr %10, align 4
  %26 = call i32 @png_gamma_significant(i32 noundef %25)
  %27 = icmp ne i32 %26, 0
  br i1 %27, label %28, label %48

28:                                               ; preds = %24, %17
  %29 = load ptr, ptr %7, align 8
  %30 = getelementptr inbounds %struct.png_colorspace, ptr %29, i32 0, i32 4
  %31 = load i16, ptr %30, align 2
  %32 = zext i16 %31 to i32
  %33 = and i32 %32, 32
  %34 = icmp ne i32 %33, 0
  br i1 %34, label %38, label %35

35:                                               ; preds = %28
  %36 = load i32, ptr %9, align 4
  %37 = icmp eq i32 %36, 2
  br i1 %37, label %38, label %43

38:                                               ; preds = %35, %28
  %39 = load ptr, ptr %6, align 8
  call void @png_chunk_report(ptr noundef %39, ptr noundef @.str.68, i32 noundef 2)
  %40 = load i32, ptr %9, align 4
  %41 = icmp eq i32 %40, 2
  %42 = zext i1 %41 to i32
  store i32 %42, ptr %5, align 4
  br label %49

43:                                               ; preds = %35
  %44 = load ptr, ptr %6, align 8
  call void @png_chunk_report(ptr noundef %44, ptr noundef @.str.69, i32 noundef 0)
  %45 = load i32, ptr %9, align 4
  %46 = icmp eq i32 %45, 1
  %47 = zext i1 %46 to i32
  store i32 %47, ptr %5, align 4
  br label %49

48:                                               ; preds = %24, %4
  store i32 1, ptr %5, align 4
  br label %49

49:                                               ; preds = %48, %43, %38
  %50 = load i32, ptr %5, align 4
  ret i32 %50
}

; Function Attrs: nounwind uwtable
define hidden i32 @png_colorspace_set_sRGB(ptr noalias noundef %0, ptr noalias noundef %1, i32 noundef %2) #0 {
  %4 = alloca i32, align 4
  %5 = alloca ptr, align 8
  %6 = alloca ptr, align 8
  %7 = alloca i32, align 4
  store ptr %0, ptr %5, align 8
  store ptr %1, ptr %6, align 8
  store i32 %2, ptr %7, align 4
  %8 = load ptr, ptr %6, align 8
  %9 = getelementptr inbounds %struct.png_colorspace, ptr %8, i32 0, i32 4
  %10 = load i16, ptr %9, align 2
  %11 = zext i16 %10 to i32
  %12 = and i32 %11, 32768
  %13 = icmp ne i32 %12, 0
  br i1 %13, label %14, label %15

14:                                               ; preds = %3
  store i32 0, ptr %4, align 4
  br label %108

15:                                               ; preds = %3
  %16 = load i32, ptr %7, align 4
  %17 = icmp slt i32 %16, 0
  br i1 %17, label %21, label %18

18:                                               ; preds = %15
  %19 = load i32, ptr %7, align 4
  %20 = icmp sge i32 %19, 4
  br i1 %20, label %21, label %27

21:                                               ; preds = %18, %15
  %22 = load ptr, ptr %5, align 8
  %23 = load ptr, ptr %6, align 8
  %24 = load i32, ptr %7, align 4
  %25 = sext i32 %24 to i64
  %26 = call i32 @png_icc_profile_error(ptr noundef %22, ptr noundef %23, ptr noundef @.str.25, i64 noundef %25, ptr noundef @.str.26)
  store i32 %26, ptr %4, align 4
  br label %108

27:                                               ; preds = %18
  %28 = load ptr, ptr %6, align 8
  %29 = getelementptr inbounds %struct.png_colorspace, ptr %28, i32 0, i32 4
  %30 = load i16, ptr %29, align 2
  %31 = zext i16 %30 to i32
  %32 = and i32 %31, 4
  %33 = icmp ne i32 %32, 0
  br i1 %33, label %34, label %47

34:                                               ; preds = %27
  %35 = load ptr, ptr %6, align 8
  %36 = getelementptr inbounds %struct.png_colorspace, ptr %35, i32 0, i32 3
  %37 = load i16, ptr %36, align 4
  %38 = zext i16 %37 to i32
  %39 = load i32, ptr %7, align 4
  %40 = icmp ne i32 %38, %39
  br i1 %40, label %41, label %47

41:                                               ; preds = %34
  %42 = load ptr, ptr %5, align 8
  %43 = load ptr, ptr %6, align 8
  %44 = load i32, ptr %7, align 4
  %45 = sext i32 %44 to i64
  %46 = call i32 @png_icc_profile_error(ptr noundef %42, ptr noundef %43, ptr noundef @.str.25, i64 noundef %45, ptr noundef @.str.27)
  store i32 %46, ptr %4, align 4
  br label %108

47:                                               ; preds = %34, %27
  %48 = load ptr, ptr %6, align 8
  %49 = getelementptr inbounds %struct.png_colorspace, ptr %48, i32 0, i32 4
  %50 = load i16, ptr %49, align 2
  %51 = zext i16 %50 to i32
  %52 = and i32 %51, 32
  %53 = icmp ne i32 %52, 0
  br i1 %53, label %54, label %56

54:                                               ; preds = %47
  %55 = load ptr, ptr %5, align 8
  call void @png_benign_error(ptr noundef %55, ptr noundef @.str.28)
  store i32 0, ptr %4, align 4
  br label %108

56:                                               ; preds = %47
  %57 = load ptr, ptr %6, align 8
  %58 = getelementptr inbounds %struct.png_colorspace, ptr %57, i32 0, i32 4
  %59 = load i16, ptr %58, align 2
  %60 = zext i16 %59 to i32
  %61 = and i32 %60, 2
  %62 = icmp ne i32 %61, 0
  br i1 %62, label %63, label %70

63:                                               ; preds = %56
  %64 = load ptr, ptr %6, align 8
  %65 = getelementptr inbounds %struct.png_colorspace, ptr %64, i32 0, i32 1
  %66 = call i32 @png_colorspace_endpoints_match(ptr noundef @sRGB_xy, ptr noundef %65, i32 noundef 100)
  %67 = icmp ne i32 %66, 0
  br i1 %67, label %70, label %68

68:                                               ; preds = %63
  %69 = load ptr, ptr %5, align 8
  call void @png_chunk_report(ptr noundef %69, ptr noundef @.str.29, i32 noundef 2)
  br label %70

70:                                               ; preds = %68, %63, %56
  %71 = load ptr, ptr %5, align 8
  %72 = load ptr, ptr %6, align 8
  %73 = call i32 @png_colorspace_check_gamma(ptr noundef %71, ptr noundef %72, i32 noundef 45455, i32 noundef 2)
  %74 = load i32, ptr %7, align 4
  %75 = trunc i32 %74 to i16
  %76 = load ptr, ptr %6, align 8
  %77 = getelementptr inbounds %struct.png_colorspace, ptr %76, i32 0, i32 3
  store i16 %75, ptr %77, align 4
  %78 = load ptr, ptr %6, align 8
  %79 = getelementptr inbounds %struct.png_colorspace, ptr %78, i32 0, i32 4
  %80 = load i16, ptr %79, align 2
  %81 = zext i16 %80 to i32
  %82 = or i32 %81, 4
  %83 = trunc i32 %82 to i16
  store i16 %83, ptr %79, align 2
  %84 = load ptr, ptr %6, align 8
  %85 = getelementptr inbounds %struct.png_colorspace, ptr %84, i32 0, i32 1
  call void @llvm.memcpy.p0.p0.i64(ptr align 4 %85, ptr align 4 @sRGB_xy, i64 32, i1 false)
  %86 = load ptr, ptr %6, align 8
  %87 = getelementptr inbounds %struct.png_colorspace, ptr %86, i32 0, i32 2
  call void @llvm.memcpy.p0.p0.i64(ptr align 4 %87, ptr align 4 @png_colorspace_set_sRGB.sRGB_XYZ, i64 36, i1 false)
  %88 = load ptr, ptr %6, align 8
  %89 = getelementptr inbounds %struct.png_colorspace, ptr %88, i32 0, i32 4
  %90 = load i16, ptr %89, align 2
  %91 = zext i16 %90 to i32
  %92 = or i32 %91, 66
  %93 = trunc i32 %92 to i16
  store i16 %93, ptr %89, align 2
  %94 = load ptr, ptr %6, align 8
  %95 = getelementptr inbounds %struct.png_colorspace, ptr %94, i32 0, i32 0
  store i32 45455, ptr %95, align 4
  %96 = load ptr, ptr %6, align 8
  %97 = getelementptr inbounds %struct.png_colorspace, ptr %96, i32 0, i32 4
  %98 = load i16, ptr %97, align 2
  %99 = zext i16 %98 to i32
  %100 = or i32 %99, 1
  %101 = trunc i32 %100 to i16
  store i16 %101, ptr %97, align 2
  %102 = load ptr, ptr %6, align 8
  %103 = getelementptr inbounds %struct.png_colorspace, ptr %102, i32 0, i32 4
  %104 = load i16, ptr %103, align 2
  %105 = zext i16 %104 to i32
  %106 = or i32 %105, 160
  %107 = trunc i32 %106 to i16
  store i16 %107, ptr %103, align 2
  store i32 1, ptr %4, align 4
  br label %108

108:                                              ; preds = %70, %54, %41, %21, %14
  %109 = load i32, ptr %4, align 4
  ret i32 %109
}