; Function Attrs: nounwind uwtable
define hidden range(i32 0, 2) i32 @png_colorspace_set_sRGB(ptr noalias noundef %0, ptr noalias noundef %1, i32 noundef %2) local_unnamed_addr #0 {
  %4 = getelementptr inbounds i8, ptr %1, i64 74
  %5 = load i16, ptr %4, align 2
  %.not = icmp sgt i16 %5, -1
  br i1 %.not, label %6, label %50

6:                                                ; preds = %3
  %or.cond = icmp ugt i32 %2, 3
  br i1 %or.cond, label %7, label %9

7:                                                ; preds = %6
  %8 = sext i32 %2 to i64
  tail call fastcc void @png_icc_profile_error(ptr noundef %0, ptr noundef nonnull %1, ptr noundef nonnull @.str.25, i64 noundef %8, ptr noundef nonnull @.str.26)
  br label %50

9:                                                ; preds = %6
  %10 = and i16 %5, 4
  %.not30 = icmp eq i16 %10, 0
  br i1 %.not30, label %17, label %11

11:                                               ; preds = %9
  %12 = getelementptr inbounds i8, ptr %1, i64 72
  %13 = load i16, ptr %12, align 4
  %14 = zext i16 %13 to i32
  %.not31 = icmp eq i32 %14, %2
  br i1 %.not31, label %17, label %15

15:                                               ; preds = %11
  %16 = zext nneg i32 %2 to i64
  tail call fastcc void @png_icc_profile_error(ptr noundef %0, ptr noundef nonnull %1, ptr noundef nonnull @.str.25, i64 noundef %16, ptr noundef nonnull @.str.27)
  br label %50

17:                                               ; preds = %11, %9
  %18 = zext nneg i16 %5 to i32
  %19 = and i32 %18, 32
  %.not32 = icmp eq i32 %19, 0
  br i1 %.not32, label %21, label %20

20:                                               ; preds = %17
  tail call void @png_benign_error(ptr noundef %0, ptr noundef nonnull @.str.28) #29
  br label %50

21:                                               ; preds = %17
  %22 = and i32 %18, 2
  %.not33 = icmp eq i32 %22, 0
  br i1 %.not33, label %27, label %23

23:                                               ; preds = %21
  %24 = getelementptr inbounds i8, ptr %1, i64 4
  %25 = tail call fastcc i32 @png_colorspace_endpoints_match(ptr noundef nonnull @sRGB_xy, ptr noundef nonnull %24, i32 noundef 100)
  %.not34 = icmp eq i32 %25, 0
  br i1 %.not34, label %26, label %27

26:                                               ; preds = %23
  tail call void @png_chunk_report(ptr noundef %0, ptr noundef nonnull @.str.29, i32 noundef 2) #29
  %.pre = load i16, ptr %4, align 2
  br label %27

27:                                               ; preds = %26, %23, %21
  %28 = phi i16 [ %.pre, %26 ], [ %5, %23 ], [ %5, %21 ]
  tail call void @llvm.experimental.noalias.scope.decl(metadata !51)
  %29 = and i16 %28, 1
  %.not.i = icmp eq i16 %29, 0
  br i1 %.not.i, label %png_colorspace_check_gamma.exit, label %30

30:                                               ; preds = %27
  %31 = load i32, ptr %1, align 4, !alias.scope !51, !noalias !54
  %32 = icmp eq i32 %31, 0
  br i1 %32, label %png_muldiv.exit.thread15.i, label %33

33:                                               ; preds = %30
  %34 = sitofp i32 %31 to double
  %35 = fmul double %34, 1.000000e+05
  %36 = fdiv double %35, 4.545500e+04
  %37 = fadd double %36, 5.000000e-01
  %38 = tail call double @llvm.floor.f64(double %37)
  %39 = fcmp ole double %38, 0x41DFFFFFFFC00000
  %40 = fcmp oge double %38, 0xC1E0000000000000
  %or.cond3.i.i = and i1 %39, %40
  br i1 %or.cond3.i.i, label %png_muldiv.exit.i, label %png_muldiv.exit.thread15.i

png_muldiv.exit.i:                                ; preds = %33
  %41 = fptosi double %38 to i32
  %42 = add i32 %41, -95000
  %43 = icmp ult i32 %42, 10001
  br i1 %43, label %png_colorspace_check_gamma.exit, label %png_muldiv.exit.thread15.i

png_muldiv.exit.thread15.i:                       ; preds = %png_muldiv.exit.i, %33, %30
  tail call void @png_chunk_report(ptr noundef %0, ptr noundef nonnull @.str.68, i32 noundef 2) #29, !noalias !51
  %.pre35 = load i16, ptr %4, align 2
  br label %png_colorspace_check_gamma.exit

png_colorspace_check_gamma.exit:                  ; preds = %27, %png_muldiv.exit.i, %png_muldiv.exit.thread15.i
  %44 = phi i16 [ %28, %27 ], [ %28, %png_muldiv.exit.i ], [ %.pre35, %png_muldiv.exit.thread15.i ]
  %45 = trunc nuw nsw i32 %2 to i16
  %46 = getelementptr inbounds i8, ptr %1, i64 72
  store i16 %45, ptr %46, align 4
  %47 = getelementptr inbounds i8, ptr %1, i64 4
  tail call void @llvm.memcpy.p0.p0.i64(ptr noundef nonnull align 4 dereferenceable(32) %47, ptr noundef nonnull align 4 dereferenceable(32) @sRGB_xy, i64 32, i1 false)
  %48 = getelementptr inbounds i8, ptr %1, i64 36
  tail call void @llvm.memcpy.p0.p0.i64(ptr noundef nonnull align 4 dereferenceable(36) %48, ptr noundef nonnull align 4 dereferenceable(36) @png_colorspace_set_sRGB.sRGB_XYZ, i64 36, i1 false)
  store i32 45455, ptr %1, align 4
  %49 = or i16 %44, 231
  store i16 %49, ptr %4, align 2
  br label %50

50:                                               ; preds = %3, %png_colorspace_check_gamma.exit, %20, %15, %7
  %.0 = phi i32 [ 0, %7 ], [ 0, %15 ], [ 0, %20 ], [ 1, %png_colorspace_check_gamma.exit ], [ 0, %3 ]
  ret i32 %.0
}